target datalayout = "e-m:e-p270:32:32-p271:32:32-p272:64:64-i64:64-i128:128-f80:128-n8:16:32:64-S128"
target triple = "x86_64-pc-linux-gnu"

%struct.string_list = type { ptr, i64, i64, i8, ptr }

@.str = private unnamed_addr constant [14 x i8] c"string-list.c\00", align 1
@.str.1 = private unnamed_addr constant [51 x i8] c"cannot setlen a string_list which owns its entries\00", align 1
@.str.2 = private unnamed_addr constant [38 x i8] c"cannot grow a string_list with setlen\00", align 1

; Function Attrs: nounwind uwtable
define dso_local void @string_list_setlen(ptr noundef %0, i64 noundef %1) #0 {
  %3 = alloca ptr, align 8
  %4 = alloca i64, align 8
  store ptr %0, ptr %3, align 8, !tbaa !4
  store i64 %1, ptr %4, align 8, !tbaa !28
  %5 = load ptr, ptr %3, align 8, !tbaa !4
  %6 = getelementptr inbounds nuw %struct.string_list, ptr %5, i32 0, i32 3
  %7 = load i8, ptr %6, align 8
  %8 = and i8 %7, 1
  %9 = zext i8 %8 to i32
  %10 = icmp ne i32 %9, 0
  br i1 %10, label %11, label %12

11:                                               ; preds = %2
  call void (ptr, i32, ptr, ...) @BUG_fl(ptr noundef @.str, i32 noundef 210, ptr noundef @.str.1) #10
  unreachable

12:                                               ; preds = %2
  %13 = load i64, ptr %4, align 8, !tbaa !28
  %14 = load ptr, ptr %3, align 8, !tbaa !4
  %15 = getelementptr inbounds nuw %struct.string_list, ptr %14, i32 0, i32 1
  %16 = load i64, ptr %15, align 8, !tbaa !17
  %17 = icmp ugt i64 %13, %16
  br i1 %17, label %18, label %19

18:                                               ; preds = %12
  call void (ptr, i32, ptr, ...) @BUG_fl(ptr noundef @.str, i32 noundef 212, ptr noundef @.str.2) #10
  unreachable

19:                                               ; preds = %12
  %20 = load i64, ptr %4, align 8, !tbaa !28
  %21 = load ptr, ptr %3, align 8, !tbaa !4
  %22 = getelementptr inbounds nuw %struct.string_list, ptr %21, i32 0, i32 1
  store i64 %20, ptr %22, align 8, !tbaa !17
  ret void
}