; Function Attrs: nounwind uwtable
define dso_local void @string_list_setlen(ptr noundef captures(none) %0, i64 noundef %1) local_unnamed_addr #4 {
  %3 = getelementptr inbounds nuw i8, ptr %0, i64 24
  %4 = load i8, ptr %3, align 8
  %5 = and i8 %4, 1
  %.not = icmp eq i8 %5, 0
  br i1 %.not, label %7, label %6

6:                                                ; preds = %2
  tail call void (ptr, i32, ptr, ...) @BUG_fl(ptr noundef nonnull @.str, i32 noundef 210, ptr noundef nonnull @.str.1) #12
  unreachable

7:                                                ; preds = %2
  %8 = getelementptr inbounds nuw i8, ptr %0, i64 8
  %9 = load i64, ptr %8, align 8, !tbaa !4
  %10 = icmp ugt i64 %1, %9
  br i1 %10, label %11, label %12

11:                                               ; preds = %7
  tail call void (ptr, i32, ptr, ...) @BUG_fl(ptr noundef nonnull @.str, i32 noundef 212, ptr noundef nonnull @.str.2) #12
  unreachable

12:                                               ; preds = %7
  store i64 %1, ptr %8, align 8, !tbaa !4
  ret void
}